; Function Attrs: nounwind uwtable
define range(i32 -1, 1) i32 @H5D_chunk_idx_reset(ptr noundef %0, i1 noundef zeroext %1) local_unnamed_addr #0 {
  %3 = load i8, ptr @H5D_init_g, align 1, !tbaa !3, !range !7, !noundef !8
  %4 = trunc nuw i8 %3 to i1
  %5 = load i8, ptr @H5_libterm_g, align 1, !range !7
  %6 = trunc nuw i8 %5 to i1
  %7 = select i1 %4, i1 true, i1 %6
  br i1 %7, label %15, label %8, !prof !9

8:                                                ; preds = %2
  store i8 1, ptr @H5D_init_g, align 1, !tbaa !3
  %9 = tail call i32 @H5D__init_package() #15
  %10 = icmp slt i32 %9, 0
  br i1 %10, label %11, label %._crit_edge

._crit_edge:                                      ; preds = %8
  %.pre = load i8, ptr @H5D_init_g, align 1, !tbaa !3, !range !7
  %.pre5 = load i8, ptr @H5_libterm_g, align 1, !range !7
  %.pre6 = trunc nuw i8 %.pre to i1
  %.pre7 = trunc nuw i8 %.pre5 to i1
  br label %15

11:                                               ; preds = %8
  store i8 0, ptr @H5D_init_g, align 1, !tbaa !3
  %12 = load i64, ptr @H5E_FUNC_g, align 8, !tbaa !21
  %13 = load i64, ptr @H5E_CANTINIT_g, align 8, !tbaa !21
  %14 = tail call i32 (ptr, ptr, i32, i64, i64, ptr, ...) @H5E_printf_stack(ptr noundef nonnull @.str.1, ptr noundef nonnull @__func__.H5D_chunk_idx_reset, i32 noundef 3550, i64 noundef %12, i64 noundef %13, ptr noundef nonnull @.str.16) #15
  br label %29

15:                                               ; preds = %._crit_edge, %2
  %.pre-phi8 = phi i1 [ %.pre7, %._crit_edge ], [ %6, %2 ]
  %.pre-phi = phi i1 [ %.pre6, %._crit_edge ], [ %4, %2 ]
  %16 = xor i1 %.pre-phi8, true
  %17 = select i1 %.pre-phi, i1 true, i1 %16
  br i1 %17, label %18, label %29, !prof !9

18:                                               ; preds = %15
  %19 = getelementptr inbounds nuw i8, ptr %0, i64 16
  %20 = load ptr, ptr %19, align 8, !tbaa !51
  %21 = getelementptr inbounds nuw i8, ptr %20, i64 136
  %22 = load ptr, ptr %21, align 8, !tbaa !54
  %23 = tail call i32 %22(ptr noundef %0, i1 noundef zeroext %1) #15
  %24 = icmp slt i32 %23, 0
  br i1 %24, label %25, label %29

25:                                               ; preds = %18
  %26 = load i64, ptr @H5E_DATASET_g, align 8, !tbaa !21
  %27 = load i64, ptr @H5E_CANTFREE_g, align 8, !tbaa !21
  %28 = tail call i32 (ptr, ptr, i32, i64, i64, ptr, ...) @H5E_printf_stack(ptr noundef nonnull @.str.1, ptr noundef nonnull @__func__.H5D_chunk_idx_reset, i32 noundef 3559, i64 noundef %26, i64 noundef %27, ptr noundef nonnull @.str.17) #15
  br label %29

29:                                               ; preds = %11, %25, %18, %15
  %.0 = phi i32 [ -1, %11 ], [ -1, %25 ], [ 0, %18 ], [ 0, %15 ]
  ret i32 %.0
}